; Function Attrs: mustprogress uwtable
define internal void @"_ZNSt17_Function_handlerIFvRN8pybind117module_EEZN16test_initializerC1EPKcPS3_E3$_0E9_M_invokeERKSt9_Any_dataS2_"(ptr nocapture noundef nonnull readonly align 8 dereferenceable(16) %0, ptr noundef nonnull align 8 dereferenceable(8) %1) #1 align 2 personality ptr @__gxx_personality_v0 {
  %3 = alloca %"class.pybind11::module_", align 8
  call void @llvm.lifetime.start.p0(i64 8, ptr nonnull %3)
  %4 = load ptr, ptr %0, align 8
  call void @_ZN8pybind117module_13def_submoduleEPKcS2_(ptr dead_on_unwind nonnull writable sret(%"class.pybind11::module_") align 8 %3, ptr noundef nonnull align 8 dereferenceable(8) %1, ptr noundef %4, ptr noundef null)
  %5 = getelementptr inbounds i8, ptr %0, i64 8
  %6 = load ptr, ptr %5, align 8
  invoke void %6(ptr noundef nonnull align 8 dereferenceable(8) %3)
          to label %7 unwind label %16

7:                                                ; preds = %2
  %8 = load ptr, ptr %3, align 8
  %.not.i.i.i.i.i.i.i = icmp eq ptr %8, null
  br i1 %.not.i.i.i.i.i.i.i, label %"_ZSt10__invoke_rIvRZN16test_initializerC1EPKcPFvRN8pybind117module_EEE3$_0JS5_EENSt9enable_ifIX16is_invocable_r_vIT_T0_DpT1_EESB_E4typeEOSC_DpOSD_.exit", label %9

9:                                                ; preds = %7
  %10 = load i64, ptr %8, align 8
  %11 = add nsw i64 %10, -1
  store i64 %11, ptr %8, align 8
  %.not.i.i.i.i.i.i.i.i = icmp eq i64 %11, 0
  br i1 %.not.i.i.i.i.i.i.i.i, label %12, label %"_ZSt10__invoke_rIvRZN16test_initializerC1EPKcPFvRN8pybind117module_EEE3$_0JS5_EENSt9enable_ifIX16is_invocable_r_vIT_T0_DpT1_EESB_E4typeEOSC_DpOSD_.exit"

12:                                               ; preds = %9
  invoke void @_Py_Dealloc(ptr noundef nonnull %8)
          to label %"_ZSt10__invoke_rIvRZN16test_initializerC1EPKcPFvRN8pybind117module_EEE3$_0JS5_EENSt9enable_ifIX16is_invocable_r_vIT_T0_DpT1_EESB_E4typeEOSC_DpOSD_.exit" unwind label %13

13:                                               ; preds = %12
  %14 = landingpad { ptr, i32 }
          catch ptr null
  %15 = extractvalue { ptr, i32 } %14, 0
  call void @__clang_call_terminate(ptr %15) #26
  unreachable

16:                                               ; preds = %2
  %17 = landingpad { ptr, i32 }
          cleanup
  call void @_ZN8pybind117module_D2Ev(ptr noundef nonnull align 8 dereferenceable(8) %3) #25
  resume { ptr, i32 } %17

"_ZSt10__invoke_rIvRZN16test_initializerC1EPKcPFvRN8pybind117module_EEE3$_0JS5_EENSt9enable_ifIX16is_invocable_r_vIT_T0_DpT1_EESB_E4typeEOSC_DpOSD_.exit": ; preds = %7, %9, %12
  call void @llvm.lifetime.end.p0(i64 8, ptr nonnull %3)
  ret void
}